; Function Attrs: nounwind uwtable
define nonnull ptr @l_Lean_Compiler_LCNF_PassInstaller_installAfter___elambda__1___lambda__1___boxed(ptr noundef %0, ptr noundef %1, ptr noundef %2) #1 {
  %4 = getelementptr inbounds nuw i8, ptr %2, i64 16
  %5 = load ptr, ptr %4, align 8, !tbaa !10
  %6 = tail call zeroext i8 @lean_name_eq(ptr noundef %5, ptr noundef %0) #6
  %7 = icmp eq i8 %6, 0
  br i1 %7, label %l_Lean_Compiler_LCNF_PassInstaller_installAfter___elambda__1___lambda__1.exit, label %8

8:                                                ; preds = %3
  %9 = getelementptr inbounds nuw i8, ptr %2, i64 8
  %10 = load ptr, ptr %9, align 8, !tbaa !10
  %11 = ptrtoint ptr %10 to i64
  %12 = ptrtoint ptr %1 to i64
  %13 = and i64 %12, 1
  %14 = and i64 %13, %11
  %or.cond.not.i = icmp eq i64 %14, 0
  br i1 %or.cond.not.i, label %.critedge.i.i, label %15, !prof !19

15:                                               ; preds = %8
  %16 = icmp eq ptr %10, %1
  br label %lean_nat_eq.exit.i

.critedge.i.i:                                    ; preds = %8
  %17 = tail call zeroext i1 @lean_nat_big_eq(ptr noundef %10, ptr noundef %1) #6
  br label %lean_nat_eq.exit.i

lean_nat_eq.exit.i:                               ; preds = %.critedge.i.i, %15
  %.0.i.i = phi i1 [ %16, %15 ], [ %17, %.critedge.i.i ]
  %18 = select i1 %.0.i.i, i64 3, i64 1
  br label %l_Lean_Compiler_LCNF_PassInstaller_installAfter___elambda__1___lambda__1.exit

l_Lean_Compiler_LCNF_PassInstaller_installAfter___elambda__1___lambda__1.exit: ; preds = %3, %lean_nat_eq.exit.i
  %.0.i = phi i64 [ %18, %lean_nat_eq.exit.i ], [ 1, %3 ]
  %19 = ptrtoint ptr %2 to i64
  %20 = and i64 %19, 1
  %.not = icmp eq i64 %20, 0
  br i1 %.not, label %21, label %lean_dec.exit8

21:                                               ; preds = %l_Lean_Compiler_LCNF_PassInstaller_installAfter___elambda__1___lambda__1.exit
  %22 = load i32, ptr %2, align 4, !tbaa !4
  %23 = icmp sgt i32 %22, 1
  br i1 %23, label %24, label %26, !prof !9

24:                                               ; preds = %21
  %25 = add nsw i32 %22, -1
  store i32 %25, ptr %2, align 4, !tbaa !4
  br label %lean_dec.exit8

26:                                               ; preds = %21
  %.not.i = icmp eq i32 %22, 0
  br i1 %.not.i, label %lean_dec.exit8, label %27

27:                                               ; preds = %26
  tail call void @lean_dec_ref_cold(ptr noundef nonnull %2) #6
  br label %lean_dec.exit8

lean_dec.exit8:                                   ; preds = %27, %26, %24, %l_Lean_Compiler_LCNF_PassInstaller_installAfter___elambda__1___lambda__1.exit
  %28 = ptrtoint ptr %1 to i64
  %29 = and i64 %28, 1
  %.not13 = icmp eq i64 %29, 0
  br i1 %.not13, label %30, label %lean_dec.exit7

30:                                               ; preds = %lean_dec.exit8
  %31 = load i32, ptr %1, align 4, !tbaa !4
  %32 = icmp sgt i32 %31, 1
  br i1 %32, label %33, label %35, !prof !9

33:                                               ; preds = %30
  %34 = add nsw i32 %31, -1
  store i32 %34, ptr %1, align 4, !tbaa !4
  br label %lean_dec.exit7

35:                                               ; preds = %30
  %.not.i9 = icmp eq i32 %31, 0
  br i1 %.not.i9, label %lean_dec.exit7, label %36

36:                                               ; preds = %35
  tail call void @lean_dec_ref_cold(ptr noundef nonnull %1) #6
  br label %lean_dec.exit7

lean_dec.exit7:                                   ; preds = %36, %35, %33, %lean_dec.exit8
  %37 = ptrtoint ptr %0 to i64
  %38 = and i64 %37, 1
  %.not14 = icmp eq i64 %38, 0
  br i1 %.not14, label %39, label %lean_dec.exit

39:                                               ; preds = %lean_dec.exit7
  %40 = load i32, ptr %0, align 4, !tbaa !4
  %41 = icmp sgt i32 %40, 1
  br i1 %41, label %42, label %44, !prof !9

42:                                               ; preds = %39
  %43 = add nsw i32 %40, -1
  store i32 %43, ptr %0, align 4, !tbaa !4
  br label %lean_dec.exit

44:                                               ; preds = %39
  %.not.i11 = icmp eq i32 %40, 0
  br i1 %.not.i11, label %lean_dec.exit, label %45

45:                                               ; preds = %44
  tail call void @lean_dec_ref_cold(ptr noundef nonnull %0) #6
  br label %lean_dec.exit

lean_dec.exit:                                    ; preds = %45, %44, %42, %lean_dec.exit7
  %46 = inttoptr i64 %.0.i to ptr
  ret ptr %46
}